; ModuleID = '54/282.c'
source_filename = "54/282.c"
target datalayout = "e-m:e-p270:32:32-p271:32:32-p272:64:64-i64:64-f80:128-n8:16:32:64-S128"
target triple = "x86_64-pc-linux-gnu"

@.str = private unnamed_addr constant [6 x i8] c"%d %d\00", align 1
@.str.1 = private unnamed_addr constant [3 x i8] c"%d\00", align 1

; Function Attrs: noinline nounwind uwtable
define dso_local void @main() #0 {
  %1 = alloca i32, align 4
  %2 = alloca i32, align 4
  %3 = alloca i32, align 4
  %4 = alloca i32, align 4
  %5 = alloca i32, align 4
  store i32 1, i32* %5, align 4
  %6 = call i32 (i8*, ...) @__isoc99_scanf(i8* getelementptr inbounds ([6 x i8], [6 x i8]* @.str, i64 0, i64 0), i32* %2, i32* %3)
  br label %7

7:                                                ; preds = %50, %0
  %8 = load i32, i32* %2, align 4
  %9 = load i32, i32* %5, align 4
  %10 = mul nsw i32 %8, %9
  %11 = load i32, i32* %3, align 4
  %12 = add nsw i32 %10, %11
  store i32 %12, i32* %1, align 4
  store i32 1, i32* %4, align 4
  br label %13

13:                                               ; preds = %43, %7
  %14 = load i32, i32* %4, align 4
  %15 = load i32, i32* %2, align 4
  %16 = icmp slt i32 %14, %15
  br i1 %16, label %17, label %46

17:                                               ; preds = %13
  %18 = load i32, i32* %1, align 4
  %19 = load i32, i32* %3, align 4
  %20 = sub nsw i32 %18, %19
  %21 = load i32, i32* %2, align 4
  %22 = srem i32 %20, %21
  %23 = icmp eq i32 %22, 0
  br i1 %23, label %24, label %41

24:                                               ; preds = %17
  %25 = load i32, i32* %1, align 4
  %26 = load i32, i32* %2, align 4
  %27 = mul nsw i32 %25, %26
  %28 = load i32, i32* %2, align 4
  %29 = sub nsw i32 %28, 1
  %30 = srem i32 %27, %29
  %31 = icmp eq i32 %30, 0
  br i1 %31, label %32, label %41

32:                                               ; preds = %24
  %33 = load i32, i32* %1, align 4
  %34 = load i32, i32* %2, align 4
  %35 = mul nsw i32 %33, %34
  %36 = load i32, i32* %2, align 4
  %37 = sub nsw i32 %36, 1
  %38 = sdiv i32 %35, %37
  %39 = load i32, i32* %3, align 4
  %40 = add nsw i32 %38, %39
  store i32 %40, i32* %1, align 4
  br label %42

41:                                               ; preds = %24, %17
  br label %46

42:                                               ; preds = %32
  br label %43

43:                                               ; preds = %42
  %44 = load i32, i32* %4, align 4
  %45 = add nsw i32 %44, 1
  store i32 %45, i32* %4, align 4
  br label %13

46:                                               ; preds = %41, %13
  %47 = load i32, i32* %4, align 4
  %48 = load i32, i32* %2, align 4
  %49 = icmp ne i32 %47, %48
  br i1 %49, label %50, label %53

50:                                               ; preds = %46
  %51 = load i32, i32* %5, align 4
  %52 = add nsw i32 %51, 1
  store i32 %52, i32* %5, align 4
  br label %7

53:                                               ; preds = %46
  %54 = load i32, i32* %1, align 4
  %55 = call i32 (i8*, ...) @printf(i8* getelementptr inbounds ([3 x i8], [3 x i8]* @.str.1, i64 0, i64 0), i32 %54)
  ret void
}

declare dso_local i32 @__isoc99_scanf(i8*, ...) #1

declare dso_local i32 @printf(i8*, ...) #1


!llvm.module.flags = !{!0}
!llvm.ident = !{!1}

!0 = !{i32 1, !"wchar_size", i32 4}
!1 = !{!"clang version 10.0.0-4ubuntu1 "}
